libmedia-hub-common.so.0 libmedia-hub-common0 #MINVER#
 _Z15the_session_busv@Base 0.0.1
 _ZNSt10shared_ptrIN4core4dbus3BusEED1Ev@Base 0.0.1
 _ZNSt10shared_ptrIN4core4dbus3BusEED2Ev@Base 0.0.1
 _ZNSt10shared_ptrIN4core4dbus8ExecutorEED1Ev@Base 0.0.1
 _ZNSt10shared_ptrIN4core4dbus8ExecutorEED2Ev@Base 0.0.1
 _ZNSt16_Sp_counted_baseILN9__gnu_cxx12_Lock_policyE2EE10_M_destroyEv@Base 0.0.1
 _ZNSt16_Sp_counted_baseILN9__gnu_cxx12_Lock_policyE2EED0Ev@Base 0.0.1
 _ZNSt16_Sp_counted_baseILN9__gnu_cxx12_Lock_policyE2EED1Ev@Base 0.0.1
 _ZNSt16_Sp_counted_baseILN9__gnu_cxx12_Lock_policyE2EED2Ev@Base 0.0.1
 _ZNSt23_Sp_counted_ptr_inplaceIN4core4dbus3BusESaIS2_ELN9__gnu_cxx12_Lock_policyE2EE10_M_destroyEv@Base 0.0.1
 _ZNSt23_Sp_counted_ptr_inplaceIN4core4dbus3BusESaIS2_ELN9__gnu_cxx12_Lock_policyE2EE10_M_disposeEv@Base 0.0.1
 _ZNSt23_Sp_counted_ptr_inplaceIN4core4dbus3BusESaIS2_ELN9__gnu_cxx12_Lock_policyE2EE14_M_get_deleterERKSt9type_info@Base 0.0.1
 _ZNSt23_Sp_counted_ptr_inplaceIN4core4dbus3BusESaIS2_ELN9__gnu_cxx12_Lock_policyE2EED0Ev@Base 0.0.1
 _ZNSt23_Sp_counted_ptr_inplaceIN4core4dbus3BusESaIS2_ELN9__gnu_cxx12_Lock_policyE2EED1Ev@Base 0.0.1
 _ZNSt23_Sp_counted_ptr_inplaceIN4core4dbus3BusESaIS2_ELN9__gnu_cxx12_Lock_policyE2EED2Ev@Base 0.0.1
 _ZTISt11_Mutex_baseILN9__gnu_cxx12_Lock_policyE2EE@Base 0.0.1
 _ZTISt16_Sp_counted_baseILN9__gnu_cxx12_Lock_policyE2EE@Base 0.0.1
 _ZTISt19_Sp_make_shared_tag@Base 0.0.1
 _ZTISt23_Sp_counted_ptr_inplaceIN4core4dbus3BusESaIS2_ELN9__gnu_cxx12_Lock_policyE2EE@Base 0.0.1
 _ZTSSt11_Mutex_baseILN9__gnu_cxx12_Lock_policyE2EE@Base 0.0.1
 _ZTSSt16_Sp_counted_baseILN9__gnu_cxx12_Lock_policyE2EE@Base 0.0.1
 _ZTSSt19_Sp_make_shared_tag@Base 0.0.1
 _ZTSSt23_Sp_counted_ptr_inplaceIN4core4dbus3BusESaIS2_ELN9__gnu_cxx12_Lock_policyE2EE@Base 0.0.1
 _ZTVSt16_Sp_counted_baseILN9__gnu_cxx12_Lock_policyE2EE@Base 0.0.1
 _ZTVSt23_Sp_counted_ptr_inplaceIN4core4dbus3BusESaIS2_ELN9__gnu_cxx12_Lock_policyE2EE@Base 0.0.1
